target datalayout = "e-m:e-p270:32:32-p271:32:32-p272:64:64-i64:64-i128:128-f80:128-n8:16:32:64-S128"
target triple = "x86_64-pc-linux-gnu"

%struct.AVFormatContext = type { ptr, ptr, ptr, ptr, ptr, i32, i32, ptr, i32, ptr, i32, ptr, ptr, i64, i64, i64, i32, i32, i32, i64, i64, ptr, i32, i32, ptr, i32, i32, i32, i32, ptr, i64, i32, i32, %struct.AVIOInterruptCB, i32, i32, i32, i32, i64, i32, i32, i32, i32, i32, i32, i32, i32, i32, i32, i32, i32, i64, i32, i32, i32, i32, i32, ptr, ptr, ptr, ptr, i32, ptr, ptr, ptr, ptr, i32, ptr, ptr, i64, ptr, ptr, ptr, i64 }
%struct.AVIOInterruptCB = type { ptr, ptr }
%struct.AVPacket = type { ptr, i64, i64, ptr, i32, i32, i32, ptr, i32, i64, i64, ptr, ptr, %struct.AVRational }
%struct.AVRational = type { i32, i32 }
%struct.MP3DecContext = type { ptr, i64, i32, i32, i32, i32, i32, i32, i32, i32 }

; Function Attrs: alwaysinline nounwind uwtable
define internal i64 @avio_tell(ptr noundef %0) #4 {
  %2 = alloca ptr, align 8
  store ptr %0, ptr %2, align 8, !tbaa !105
  %3 = load ptr, ptr %2, align 8, !tbaa !105
  %4 = call i64 @avio_seek(ptr noundef %3, i64 noundef 0, i32 noundef 1)
  ret i64 %4
}

; Function Attrs: nounwind uwtable
define internal i32 @mp3_read_packet(ptr noundef %0, ptr noundef %1) #0 {
  %3 = alloca i32, align 4
  %4 = alloca ptr, align 8
  %5 = alloca ptr, align 8
  %6 = alloca ptr, align 8
  %7 = alloca i32, align 4
  %8 = alloca i32, align 4
  %9 = alloca i64, align 8
  %10 = alloca i32, align 4
  store ptr %0, ptr %4, align 8, !tbaa !24
  store ptr %1, ptr %5, align 8, !tbaa !90
  call void @llvm.lifetime.start.p0(i64 8, ptr %6) #8
  %11 = load ptr, ptr %4, align 8, !tbaa !24
  %12 = getelementptr inbounds nuw %struct.AVFormatContext, ptr %11, i32 0, i32 3
  %13 = load ptr, ptr %12, align 8, !tbaa !28
  store ptr %13, ptr %6, align 8, !tbaa !43
  call void @llvm.lifetime.start.p0(i64 4, ptr %7) #8
  call void @llvm.lifetime.start.p0(i64 4, ptr %8) #8
  call void @llvm.lifetime.start.p0(i64 8, ptr %9) #8
  store i32 1024, ptr %8, align 4, !tbaa !9
  %14 = load ptr, ptr %4, align 8, !tbaa !24
  %15 = getelementptr inbounds nuw %struct.AVFormatContext, ptr %14, i32 0, i32 4
  %16 = load ptr, ptr %15, align 8, !tbaa !76
  %17 = call i64 @avio_tell(ptr noundef %16)
  store i64 %17, ptr %9, align 8, !tbaa !80
  %18 = load ptr, ptr %6, align 8, !tbaa !43
  %19 = getelementptr inbounds nuw %struct.MP3DecContext, ptr %18, i32 0, i32 1
  %20 = load i64, ptr %19, align 8, !tbaa !82
  %21 = icmp sgt i64 %20, 128
  br i1 %21, label %22, label %49

22:                                               ; preds = %2
  %23 = load i64, ptr %9, align 8, !tbaa !80
  %24 = load ptr, ptr %6, align 8, !tbaa !43
  %25 = getelementptr inbounds nuw %struct.MP3DecContext, ptr %24, i32 0, i32 1
  %26 = load i64, ptr %25, align 8, !tbaa !82
  %27 = icmp slt i64 %23, %26
  br i1 %27, label %28, label %49

28:                                               ; preds = %22
  %29 = load i32, ptr %8, align 4, !tbaa !9
  %30 = sext i32 %29 to i64
  %31 = load ptr, ptr %6, align 8, !tbaa !43
  %32 = getelementptr inbounds nuw %struct.MP3DecContext, ptr %31, i32 0, i32 1
  %33 = load i64, ptr %32, align 8, !tbaa !82
  %34 = load i64, ptr %9, align 8, !tbaa !80
  %35 = sub nsw i64 %33, %34
  %36 = icmp sgt i64 %30, %35
  br i1 %36, label %37, label %43

37:                                               ; preds = %28
  %38 = load ptr, ptr %6, align 8, !tbaa !43
  %39 = getelementptr inbounds nuw %struct.MP3DecContext, ptr %38, i32 0, i32 1
  %40 = load i64, ptr %39, align 8, !tbaa !82
  %41 = load i64, ptr %9, align 8, !tbaa !80
  %42 = sub nsw i64 %40, %41
  br label %46

43:                                               ; preds = %28
  %44 = load i32, ptr %8, align 4, !tbaa !9
  %45 = sext i32 %44 to i64
  br label %46

46:                                               ; preds = %43, %37
  %47 = phi i64 [ %42, %37 ], [ %45, %43 ]
  %48 = trunc i64 %47 to i32
  store i32 %48, ptr %8, align 4, !tbaa !9
  br label %49

49:                                               ; preds = %46, %22, %2
  %50 = load ptr, ptr %4, align 8, !tbaa !24
  %51 = getelementptr inbounds nuw %struct.AVFormatContext, ptr %50, i32 0, i32 4
  %52 = load ptr, ptr %51, align 8, !tbaa !76
  %53 = load ptr, ptr %5, align 8, !tbaa !90
  %54 = load i32, ptr %8, align 4, !tbaa !9
  %55 = call i32 @av_get_packet(ptr noundef %52, ptr noundef %53, i32 noundef %54)
  store i32 %55, ptr %7, align 4, !tbaa !9
  %56 = load i32, ptr %7, align 4, !tbaa !9
  %57 = icmp sle i32 %56, 0
  br i1 %57, label %58, label %64

58:                                               ; preds = %49
  %59 = load i32, ptr %7, align 4, !tbaa !9
  %60 = icmp slt i32 %59, 0
  br i1 %60, label %61, label %63

61:                                               ; preds = %58
  %62 = load i32, ptr %7, align 4, !tbaa !9
  store i32 %62, ptr %3, align 4
  store i32 1, ptr %10, align 4
  br label %72

63:                                               ; preds = %58
  store i32 -541478725, ptr %3, align 4
  store i32 1, ptr %10, align 4
  br label %72

64:                                               ; preds = %49
  %65 = load ptr, ptr %5, align 8, !tbaa !90
  %66 = getelementptr inbounds nuw %struct.AVPacket, ptr %65, i32 0, i32 6
  %67 = load i32, ptr %66, align 8, !tbaa !91
  %68 = and i32 %67, -3
  store i32 %68, ptr %66, align 8, !tbaa !91
  %69 = load ptr, ptr %5, align 8, !tbaa !90
  %70 = getelementptr inbounds nuw %struct.AVPacket, ptr %69, i32 0, i32 5
  store i32 0, ptr %70, align 4, !tbaa !92
  %71 = load i32, ptr %7, align 4, !tbaa !9
  store i32 %71, ptr %3, align 4
  store i32 1, ptr %10, align 4
  br label %72

72:                                               ; preds = %64, %63, %61
  call void @llvm.lifetime.end.p0(i64 8, ptr %9) #8
  call void @llvm.lifetime.end.p0(i64 4, ptr %8) #8
  call void @llvm.lifetime.end.p0(i64 4, ptr %7) #8
  call void @llvm.lifetime.end.p0(i64 8, ptr %6) #8
  %73 = load i32, ptr %3, align 4
  ret i32 %73
}