; Function Attrs: nounwind uwtable
define internal i32 @mp3_read_packet(ptr noundef readonly captures(none) %0, ptr noundef %1) #0 {
  %3 = getelementptr inbounds nuw i8, ptr %0, i64 24
  %4 = load ptr, ptr %3, align 8, !tbaa !20
  %5 = getelementptr inbounds nuw i8, ptr %0, i64 32
  %6 = load ptr, ptr %5, align 8, !tbaa !64
  %7 = tail call i64 @avio_seek(ptr noundef %6, i64 noundef 0, i32 noundef 1) #6
  %8 = getelementptr inbounds nuw i8, ptr %4, i64 8
  %9 = load i64, ptr %8, align 8, !tbaa !69
  %10 = icmp sgt i64 %9, 128
  %11 = icmp slt i64 %7, %9
  %or.cond = select i1 %10, i1 %11, i1 false
  %12 = sub nsw i64 %9, %7
  %13 = tail call i64 @llvm.smin.i64(i64 %12, i64 1024)
  %14 = trunc i64 %13 to i32
  %.020 = select i1 %or.cond, i32 %14, i32 1024
  %15 = load ptr, ptr %5, align 8, !tbaa !64
  %16 = tail call i32 @av_get_packet(ptr noundef %15, ptr noundef %1, i32 noundef %.020) #6
  %17 = icmp slt i32 %16, 1
  br i1 %17, label %18, label %19

18:                                               ; preds = %2
  %.not = icmp eq i32 %16, 0
  %. = select i1 %.not, i32 -541478725, i32 %16
  br label %24

19:                                               ; preds = %2
  %20 = getelementptr inbounds nuw i8, ptr %1, i64 40
  %21 = load i32, ptr %20, align 8, !tbaa !100
  %22 = and i32 %21, -3
  store i32 %22, ptr %20, align 8, !tbaa !100
  %23 = getelementptr inbounds nuw i8, ptr %1, i64 36
  store i32 0, ptr %23, align 4, !tbaa !101
  br label %24

24:                                               ; preds = %18, %19
  %.0 = phi i32 [ %16, %19 ], [ %., %18 ]
  ret i32 %.0
}